; Function Attrs: mustprogress uwtable
define void @_ZN6google8protobuf8compiler26CodeGeneratorResponse_File25clear_generated_code_infoEv(ptr nocapture noundef nonnull align 8 dereferenceable(56) %this) local_unnamed_addr #3 align 2 {
entry:
  %generated_code_info_ = getelementptr inbounds i8, ptr %this, i64 48
  %0 = load ptr, ptr %generated_code_info_, align 8
  %cmp.not = icmp eq ptr %0, null
  br i1 %cmp.not, label %if.end, label %if.then

if.then:                                          ; preds = %entry
  tail call void @_ZN6google8protobuf17GeneratedCodeInfo5ClearEv(ptr noundef nonnull align 8 dereferenceable(48) %0)
  br label %if.end

if.end:                                           ; preds = %if.then, %entry
  %1 = getelementptr inbounds i8, ptr %this, i64 16
  %2 = load i32, ptr %1, align 8
  %and = and i32 %2, -9
  store i32 %and, ptr %1, align 8
  ret void
}